target datalayout = "e-m:e-p270:32:32-p271:32:32-p272:64:64-i64:64-i128:128-f80:128-n8:16:32:64-S128"
target triple = "x86_64-pc-linux-gnu"

@.str.8 = private unnamed_addr constant [12 x i8] c"getnameinfo\00", align 1

; Function Attrs: nounwind sspstrong uwtable
define internal void @make_ipaddr0(ptr noundef %0, i32 noundef %1, ptr noundef %2, i64 noundef %3) #0 {
  %5 = alloca ptr, align 8
  %6 = alloca i32, align 4
  %7 = alloca ptr, align 8
  %8 = alloca i64, align 8
  %9 = alloca i32, align 4
  store ptr %0, ptr %5, align 8, !tbaa !29
  store i32 %1, ptr %6, align 4, !tbaa !27
  store ptr %2, ptr %7, align 8, !tbaa !30
  store i64 %3, ptr %8, align 8, !tbaa !31
  call void @llvm.lifetime.start.p0(i64 4, ptr %9) #24
  %10 = load ptr, ptr %5, align 8, !tbaa !29
  %11 = load i32, ptr %6, align 4, !tbaa !27
  %12 = load ptr, ptr %7, align 8, !tbaa !30
  %13 = load i64, ptr %8, align 8, !tbaa !31
  %14 = call i32 @rb_getnameinfo(ptr noundef %10, i32 noundef %11, ptr noundef %12, i64 noundef %13, ptr noundef null, i64 noundef 0, i32 noundef 1)
  store i32 %14, ptr %9, align 4, !tbaa !27
  %15 = load i32, ptr %9, align 4, !tbaa !27
  %16 = icmp ne i32 %15, 0
  br i1 %16, label %17, label %19

17:                                               ; preds = %4
  %18 = load i32, ptr %9, align 4, !tbaa !27
  call void @rsock_raise_resolution_error(ptr noundef @.str.8, i32 noundef %18) #27
  unreachable

19:                                               ; preds = %4
  call void @llvm.lifetime.end.p0(i64 4, ptr %9) #24
  ret void
}

; Function Attrs: nounwind sspstrong uwtable
define i64 @rsock_make_ipaddr(ptr noundef %0, i32 noundef %1) #0 {
  %3 = alloca ptr, align 8
  %4 = alloca i32, align 4
  %5 = alloca [1024 x i8], align 16
  store ptr %0, ptr %3, align 8, !tbaa !29
  store i32 %1, ptr %4, align 4, !tbaa !27
  call void @llvm.lifetime.start.p0(i64 1024, ptr %5) #24
  %6 = load ptr, ptr %3, align 8, !tbaa !29
  %7 = load i32, ptr %4, align 4, !tbaa !27
  %8 = getelementptr inbounds [1024 x i8], ptr %5, i64 0, i64 0
  call void @make_ipaddr0(ptr noundef %6, i32 noundef %7, ptr noundef %8, i64 noundef 1024)
  %9 = getelementptr inbounds [1024 x i8], ptr %5, i64 0, i64 0
  %10 = call i64 @rb_str_new_cstr(ptr noundef %9)
  call void @llvm.lifetime.end.p0(i64 1024, ptr %5) #24
  ret i64 %10
}