; Function Attrs: nounwind sspstrong uwtable
define i64 @rsock_make_ipaddr(ptr noundef readonly captures(none) %0, i32 noundef %1) local_unnamed_addr #0 {
  %3 = alloca [1024 x i8], align 16
  call void @llvm.lifetime.start.p0(i64 1024, ptr nonnull %3) #21
  %4 = call i32 @rb_getnameinfo(ptr noundef readonly %0, i32 noundef %1, ptr noundef nonnull %3, i64 noundef 1024, ptr noundef null, i64 noundef 0, i32 noundef 1)
  %.not.i = icmp eq i32 %4, 0
  br i1 %.not.i, label %make_ipaddr0.exit, label %5

5:                                                ; preds = %2
  call void @rsock_raise_resolution_error(ptr noundef nonnull @.str.8, i32 noundef %4) #23
  unreachable

make_ipaddr0.exit:                                ; preds = %2
  %6 = call i64 @rb_str_new_cstr(ptr noundef nonnull %3) #21
  call void @llvm.lifetime.end.p0(i64 1024, ptr nonnull %3) #21
  ret i64 %6
}